; Function Attrs: nounwind uwtable
define internal ptr @memory_ndim_get(ptr noundef readonly captures(none) %0, ptr readnone captures(none) %1) #0 {
  %3 = getelementptr inbounds nuw i8, ptr %0, i64 40
  %4 = load i32, ptr %3, align 8, !tbaa !109
  %5 = and i32 %4, 1
  %.not = icmp eq i32 %5, 0
  br i1 %.not, label %6, label %12

6:                                                ; preds = %2
  %7 = getelementptr inbounds nuw i8, ptr %0, i64 24
  %8 = load ptr, ptr %7, align 8, !tbaa !105
  %9 = getelementptr inbounds nuw i8, ptr %8, i64 16
  %10 = load i32, ptr %9, align 8, !tbaa !4
  %11 = and i32 %10, 1
  %.not5 = icmp eq i32 %11, 0
  br i1 %.not5, label %14, label %12

12:                                               ; preds = %6, %2
  %13 = load ptr, ptr @PyExc_ValueError, align 8, !tbaa !104
  tail call void @PyErr_SetString(ptr noundef %13, ptr noundef nonnull @.str.8) #14
  br label %19

14:                                               ; preds = %6
  %15 = getelementptr inbounds nuw i8, ptr %0, i64 92
  %16 = load i32, ptr %15, align 4, !tbaa !111
  %17 = sext i32 %16 to i64
  %18 = tail call ptr @PyLong_FromLong(i64 noundef %17) #14
  br label %19

19:                                               ; preds = %14, %12
  %.0 = phi ptr [ null, %12 ], [ %18, %14 ]
  ret ptr %.0
}